target datalayout = "e-m:e-p270:32:32-p271:32:32-p272:64:64-i64:64-i128:128-f80:128-n8:16:32:64-S128"
target triple = "x86_64-pc-linux-gnu"

%struct._object = type { %union.anon, ptr }
%union.anon = type { i64 }
%struct.anon = type { i32, i32 }
%struct._hashlibstate = type { ptr, ptr, ptr, ptr, ptr, ptr }

; Function Attrs: alwaysinline nounwind uwtable
define internal i32 @_Py_IsImmortal(ptr noundef %0) #3 {
  %2 = alloca ptr, align 8
  store ptr %0, ptr %2, align 8, !tbaa !14
  %3 = load ptr, ptr %2, align 8, !tbaa !14
  %4 = getelementptr inbounds nuw %struct._object, ptr %3, i32 0, i32 0
  %5 = getelementptr inbounds nuw %struct.anon, ptr %4, i32 0, i32 0
  %6 = load i32, ptr %5, align 8, !tbaa !28
  %7 = icmp slt i32 %6, 0
  %8 = zext i1 %7 to i32
  ret i32 %8
}

; Function Attrs: alwaysinline nounwind uwtable
define internal void @Py_DECREF(ptr noundef %0) #3 {
  %2 = alloca ptr, align 8
  store ptr %0, ptr %2, align 8, !tbaa !14
  %3 = load ptr, ptr %2, align 8, !tbaa !14
  %4 = call i32 @_Py_IsImmortal(ptr noundef %3)
  %5 = icmp ne i32 %4, 0
  br i1 %5, label %6, label %7

6:                                                ; preds = %1
  br label %16

7:                                                ; preds = %1
  %8 = load ptr, ptr %2, align 8, !tbaa !14
  %9 = getelementptr inbounds nuw %struct._object, ptr %8, i32 0, i32 0
  %10 = getelementptr inbounds nuw %struct.anon, ptr %9, i32 0, i32 0
  %11 = load i32, ptr %10, align 8, !tbaa !28
  %12 = add i32 %11, -1
  store i32 %12, ptr %10, align 8, !tbaa !28
  %13 = icmp eq i32 %12, 0
  br i1 %13, label %14, label %16

14:                                               ; preds = %7
  %15 = load ptr, ptr %2, align 8, !tbaa !14
  call void @_Py_Dealloc(ptr noundef %15)
  br label %16

16:                                               ; preds = %6, %14, %7
  ret void
}

; Function Attrs: inlinehint nounwind uwtable
define internal ptr @get_hashlib_state(ptr noundef %0) #4 {
  %2 = alloca ptr, align 8
  %3 = alloca ptr, align 8
  store ptr %0, ptr %2, align 8, !tbaa !14
  call void @llvm.lifetime.start.p0(i64 8, ptr %3) #9
  %4 = load ptr, ptr %2, align 8, !tbaa !14
  %5 = call ptr @PyModule_GetState(ptr noundef %4)
  store ptr %5, ptr %3, align 8, !tbaa !3
  %6 = load ptr, ptr %3, align 8, !tbaa !3
  call void @llvm.lifetime.end.p0(i64 8, ptr %3) #9
  ret ptr %6
}

; Function Attrs: nounwind uwtable
define internal i32 @hashlib_clear(ptr noundef %0) #0 {
  %2 = alloca ptr, align 8
  %3 = alloca ptr, align 8
  %4 = alloca ptr, align 8
  %5 = alloca ptr, align 8
  %6 = alloca ptr, align 8
  %7 = alloca ptr, align 8
  %8 = alloca ptr, align 8
  %9 = alloca ptr, align 8
  %10 = alloca ptr, align 8
  %11 = alloca ptr, align 8
  %12 = alloca ptr, align 8
  %13 = alloca ptr, align 8
  store ptr %0, ptr %2, align 8, !tbaa !14
  call void @llvm.lifetime.start.p0(i64 8, ptr %3) #9
  %14 = load ptr, ptr %2, align 8, !tbaa !14
  %15 = call ptr @get_hashlib_state(ptr noundef %14)
  store ptr %15, ptr %3, align 8, !tbaa !3
  br label %16

16:                                               ; preds = %1
  call void @llvm.lifetime.start.p0(i64 8, ptr %4) #9
  %17 = load ptr, ptr %3, align 8, !tbaa !3
  %18 = getelementptr inbounds nuw %struct._hashlibstate, ptr %17, i32 0, i32 0
  store ptr %18, ptr %4, align 8, !tbaa !64
  call void @llvm.lifetime.start.p0(i64 8, ptr %5) #9
  %19 = load ptr, ptr %4, align 8, !tbaa !64
  %20 = load ptr, ptr %19, align 8, !tbaa !16
  store ptr %20, ptr %5, align 8, !tbaa !16
  %21 = load ptr, ptr %5, align 8, !tbaa !16
  %22 = icmp ne ptr %21, null
  br i1 %22, label %23, label %26

23:                                               ; preds = %16
  %24 = load ptr, ptr %4, align 8, !tbaa !64
  store ptr null, ptr %24, align 8, !tbaa !16
  %25 = load ptr, ptr %5, align 8, !tbaa !16
  call void @Py_DECREF(ptr noundef %25)
  br label %26

26:                                               ; preds = %23, %16
  call void @llvm.lifetime.end.p0(i64 8, ptr %5) #9
  call void @llvm.lifetime.end.p0(i64 8, ptr %4) #9
  br label %27

27:                                               ; preds = %26
  br label %28

28:                                               ; preds = %27
  br label %29

29:                                               ; preds = %28
  call void @llvm.lifetime.start.p0(i64 8, ptr %6) #9
  %30 = load ptr, ptr %3, align 8, !tbaa !3
  %31 = getelementptr inbounds nuw %struct._hashlibstate, ptr %30, i32 0, i32 1
  store ptr %31, ptr %6, align 8, !tbaa !64
  call void @llvm.lifetime.start.p0(i64 8, ptr %7) #9
  %32 = load ptr, ptr %6, align 8, !tbaa !64
  %33 = load ptr, ptr %32, align 8, !tbaa !16
  store ptr %33, ptr %7, align 8, !tbaa !16
  %34 = load ptr, ptr %7, align 8, !tbaa !16
  %35 = icmp ne ptr %34, null
  br i1 %35, label %36, label %39

36:                                               ; preds = %29
  %37 = load ptr, ptr %6, align 8, !tbaa !64
  store ptr null, ptr %37, align 8, !tbaa !16
  %38 = load ptr, ptr %7, align 8, !tbaa !16
  call void @Py_DECREF(ptr noundef %38)
  br label %39

39:                                               ; preds = %36, %29
  call void @llvm.lifetime.end.p0(i64 8, ptr %7) #9
  call void @llvm.lifetime.end.p0(i64 8, ptr %6) #9
  br label %40

40:                                               ; preds = %39
  br label %41

41:                                               ; preds = %40
  br label %42

42:                                               ; preds = %41
  call void @llvm.lifetime.start.p0(i64 8, ptr %8) #9
  %43 = load ptr, ptr %3, align 8, !tbaa !3
  %44 = getelementptr inbounds nuw %struct._hashlibstate, ptr %43, i32 0, i32 2
  store ptr %44, ptr %8, align 8, !tbaa !64
  call void @llvm.lifetime.start.p0(i64 8, ptr %9) #9
  %45 = load ptr, ptr %8, align 8, !tbaa !64
  %46 = load ptr, ptr %45, align 8, !tbaa !16
  store ptr %46, ptr %9, align 8, !tbaa !16
  %47 = load ptr, ptr %9, align 8, !tbaa !16
  %48 = icmp ne ptr %47, null
  br i1 %48, label %49, label %52

49:                                               ; preds = %42
  %50 = load ptr, ptr %8, align 8, !tbaa !64
  store ptr null, ptr %50, align 8, !tbaa !16
  %51 = load ptr, ptr %9, align 8, !tbaa !16
  call void @Py_DECREF(ptr noundef %51)
  br label %52

52:                                               ; preds = %49, %42
  call void @llvm.lifetime.end.p0(i64 8, ptr %9) #9
  call void @llvm.lifetime.end.p0(i64 8, ptr %8) #9
  br label %53

53:                                               ; preds = %52
  br label %54

54:                                               ; preds = %53
  br label %55

55:                                               ; preds = %54
  call void @llvm.lifetime.start.p0(i64 8, ptr %10) #9
  %56 = load ptr, ptr %3, align 8, !tbaa !3
  %57 = getelementptr inbounds nuw %struct._hashlibstate, ptr %56, i32 0, i32 3
  store ptr %57, ptr %10, align 8, !tbaa !30
  call void @llvm.lifetime.start.p0(i64 8, ptr %11) #9
  %58 = load ptr, ptr %10, align 8, !tbaa !30
  %59 = load ptr, ptr %58, align 8, !tbaa !14
  store ptr %59, ptr %11, align 8, !tbaa !14
  %60 = load ptr, ptr %11, align 8, !tbaa !14
  %61 = icmp ne ptr %60, null
  br i1 %61, label %62, label %65

62:                                               ; preds = %55
  %63 = load ptr, ptr %10, align 8, !tbaa !30
  store ptr null, ptr %63, align 8, !tbaa !14
  %64 = load ptr, ptr %11, align 8, !tbaa !14
  call void @Py_DECREF(ptr noundef %64)
  br label %65

65:                                               ; preds = %62, %55
  call void @llvm.lifetime.end.p0(i64 8, ptr %11) #9
  call void @llvm.lifetime.end.p0(i64 8, ptr %10) #9
  br label %66

66:                                               ; preds = %65
  br label %67

67:                                               ; preds = %66
  br label %68

68:                                               ; preds = %67
  call void @llvm.lifetime.start.p0(i64 8, ptr %12) #9
  %69 = load ptr, ptr %3, align 8, !tbaa !3
  %70 = getelementptr inbounds nuw %struct._hashlibstate, ptr %69, i32 0, i32 4
  store ptr %70, ptr %12, align 8, !tbaa !30
  call void @llvm.lifetime.start.p0(i64 8, ptr %13) #9
  %71 = load ptr, ptr %12, align 8, !tbaa !30
  %72 = load ptr, ptr %71, align 8, !tbaa !14
  store ptr %72, ptr %13, align 8, !tbaa !14
  %73 = load ptr, ptr %13, align 8, !tbaa !14
  %74 = icmp ne ptr %73, null
  br i1 %74, label %75, label %78

75:                                               ; preds = %68
  %76 = load ptr, ptr %12, align 8, !tbaa !30
  store ptr null, ptr %76, align 8, !tbaa !14
  %77 = load ptr, ptr %13, align 8, !tbaa !14
  call void @Py_DECREF(ptr noundef %77)
  br label %78

78:                                               ; preds = %75, %68
  call void @llvm.lifetime.end.p0(i64 8, ptr %13) #9
  call void @llvm.lifetime.end.p0(i64 8, ptr %12) #9
  br label %79

79:                                               ; preds = %78
  br label %80

80:                                               ; preds = %79
  %81 = load ptr, ptr %3, align 8, !tbaa !3
  %82 = getelementptr inbounds nuw %struct._hashlibstate, ptr %81, i32 0, i32 5
  %83 = load ptr, ptr %82, align 8, !tbaa !66
  %84 = icmp ne ptr %83, null
  br i1 %84, label %85, label %91

85:                                               ; preds = %80
  %86 = load ptr, ptr %3, align 8, !tbaa !3
  %87 = getelementptr inbounds nuw %struct._hashlibstate, ptr %86, i32 0, i32 5
  %88 = load ptr, ptr %87, align 8, !tbaa !66
  call void @_Py_hashtable_destroy(ptr noundef %88)
  %89 = load ptr, ptr %3, align 8, !tbaa !3
  %90 = getelementptr inbounds nuw %struct._hashlibstate, ptr %89, i32 0, i32 5
  store ptr null, ptr %90, align 8, !tbaa !66
  br label %91

91:                                               ; preds = %85, %80
  call void @llvm.lifetime.end.p0(i64 8, ptr %3) #9
  ret i32 0
}