; Function Attrs: nounwind uwtable
define internal noundef i32 @hashlib_clear(ptr noundef %0) #0 {
  %2 = tail call ptr @PyModule_GetState(ptr noundef %0) #9
  %3 = load ptr, ptr %2, align 8, !tbaa !49
  %.not = icmp eq ptr %3, null
  br i1 %.not, label %Py_DECREF.exit46, label %4

4:                                                ; preds = %1
  store ptr null, ptr %2, align 8, !tbaa !49
  %5 = load i32, ptr %3, align 8, !tbaa !21
  %.not.i45 = icmp sgt i32 %5, -1
  br i1 %.not.i45, label %6, label %Py_DECREF.exit46

6:                                                ; preds = %4
  %7 = add nsw i32 %5, -1
  store i32 %7, ptr %3, align 8, !tbaa !21
  %8 = icmp eq i32 %7, 0
  br i1 %8, label %9, label %Py_DECREF.exit46

9:                                                ; preds = %6
  tail call void @_Py_Dealloc(ptr noundef nonnull %3) #9
  br label %Py_DECREF.exit46

Py_DECREF.exit46:                                 ; preds = %9, %6, %4, %1
  %10 = getelementptr inbounds nuw i8, ptr %2, i64 8
  %11 = load ptr, ptr %10, align 8, !tbaa !49
  %.not34 = icmp eq ptr %11, null
  br i1 %.not34, label %Py_DECREF.exit44, label %12

12:                                               ; preds = %Py_DECREF.exit46
  store ptr null, ptr %10, align 8, !tbaa !49
  %13 = load i32, ptr %11, align 8, !tbaa !21
  %.not.i43 = icmp sgt i32 %13, -1
  br i1 %.not.i43, label %14, label %Py_DECREF.exit44

14:                                               ; preds = %12
  %15 = add nsw i32 %13, -1
  store i32 %15, ptr %11, align 8, !tbaa !21
  %16 = icmp eq i32 %15, 0
  br i1 %16, label %17, label %Py_DECREF.exit44

17:                                               ; preds = %14
  tail call void @_Py_Dealloc(ptr noundef nonnull %11) #9
  br label %Py_DECREF.exit44

Py_DECREF.exit44:                                 ; preds = %17, %14, %12, %Py_DECREF.exit46
  %18 = getelementptr inbounds nuw i8, ptr %2, i64 16
  %19 = load ptr, ptr %18, align 8, !tbaa !49
  %.not35 = icmp eq ptr %19, null
  br i1 %.not35, label %Py_DECREF.exit42, label %20

20:                                               ; preds = %Py_DECREF.exit44
  store ptr null, ptr %18, align 8, !tbaa !49
  %21 = load i32, ptr %19, align 8, !tbaa !21
  %.not.i41 = icmp sgt i32 %21, -1
  br i1 %.not.i41, label %22, label %Py_DECREF.exit42

22:                                               ; preds = %20
  %23 = add nsw i32 %21, -1
  store i32 %23, ptr %19, align 8, !tbaa !21
  %24 = icmp eq i32 %23, 0
  br i1 %24, label %25, label %Py_DECREF.exit42

25:                                               ; preds = %22
  tail call void @_Py_Dealloc(ptr noundef nonnull %19) #9
  br label %Py_DECREF.exit42

Py_DECREF.exit42:                                 ; preds = %25, %22, %20, %Py_DECREF.exit44
  %26 = getelementptr inbounds nuw i8, ptr %2, i64 24
  %27 = load ptr, ptr %26, align 8, !tbaa !23
  %.not36 = icmp eq ptr %27, null
  br i1 %.not36, label %Py_DECREF.exit40, label %28

28:                                               ; preds = %Py_DECREF.exit42
  store ptr null, ptr %26, align 8, !tbaa !23
  %29 = load i32, ptr %27, align 8, !tbaa !21
  %.not.i39 = icmp sgt i32 %29, -1
  br i1 %.not.i39, label %30, label %Py_DECREF.exit40

30:                                               ; preds = %28
  %31 = add nsw i32 %29, -1
  store i32 %31, ptr %27, align 8, !tbaa !21
  %32 = icmp eq i32 %31, 0
  br i1 %32, label %33, label %Py_DECREF.exit40

33:                                               ; preds = %30
  tail call void @_Py_Dealloc(ptr noundef nonnull %27) #9
  br label %Py_DECREF.exit40

Py_DECREF.exit40:                                 ; preds = %33, %30, %28, %Py_DECREF.exit42
  %34 = getelementptr inbounds nuw i8, ptr %2, i64 32
  %35 = load ptr, ptr %34, align 8, !tbaa !23
  %.not37 = icmp eq ptr %35, null
  br i1 %.not37, label %Py_DECREF.exit, label %36

36:                                               ; preds = %Py_DECREF.exit40
  store ptr null, ptr %34, align 8, !tbaa !23
  %37 = load i32, ptr %35, align 8, !tbaa !21
  %.not.i = icmp sgt i32 %37, -1
  br i1 %.not.i, label %38, label %Py_DECREF.exit

38:                                               ; preds = %36
  %39 = add nsw i32 %37, -1
  store i32 %39, ptr %35, align 8, !tbaa !21
  %40 = icmp eq i32 %39, 0
  br i1 %40, label %41, label %Py_DECREF.exit

41:                                               ; preds = %38
  tail call void @_Py_Dealloc(ptr noundef nonnull %35) #9
  br label %Py_DECREF.exit

Py_DECREF.exit:                                   ; preds = %41, %38, %36, %Py_DECREF.exit40
  %42 = getelementptr inbounds nuw i8, ptr %2, i64 40
  %43 = load ptr, ptr %42, align 8, !tbaa !50
  %.not38 = icmp eq ptr %43, null
  br i1 %.not38, label %45, label %44

44:                                               ; preds = %Py_DECREF.exit
  tail call void @_Py_hashtable_destroy(ptr noundef nonnull %43) #9
  store ptr null, ptr %42, align 8, !tbaa !50
  br label %45

45:                                               ; preds = %44, %Py_DECREF.exit
  ret i32 0
}